#include <math.h>
#include <stdio.h>
#include <stdlib.h>
#include <string.h>

int main()
{
    char y[100],h[100],c[100];
    int i,j,len[3],count=0,k=0,a[100];
    scanf("%s",&y);
    scanf("%s",&h);
    scanf("%s",&c);
    for (i=0;i<strlen(y);i++){
        for (j=0;j<strlen(h);j++){
            if (y[i+j]==h[j]){
            count++;
            }
        }
        if (count==strlen(h))
        {
            k++;
            a[k]=i;
        }
        count=0;
    }
    if (k==0){
        printf("%s",y);
        return 0;
    }
    for (i=0;i<a[1];i++)
        printf("%c",y[i]);
        printf("%s",c);
        if (i==k)
           return 0;
        for (j=a[1]+strlen(h);j<strlen(y);j++){
            printf("%c",y[j]);
        }
    return 0;
}
